; Function Attrs: mustprogress nofree norecurse nosync nounwind willreturn memory(write, argmem: readwrite, inaccessiblemem: none) uwtable
define void @wolfSSL_CTX_SetCACb(ptr noundef readonly captures(address_is_null) %0, ptr noundef %1) local_unnamed_addr #16 {
  %.not = icmp eq ptr %0, null
  br i1 %.not, label %8, label %3

3:                                                ; preds = %2
  %4 = getelementptr inbounds nuw i8, ptr %0, i64 144
  %5 = load ptr, ptr %4, align 8, !tbaa !26
  %.not5 = icmp eq ptr %5, null
  br i1 %.not5, label %8, label %6

6:                                                ; preds = %3
  %7 = getelementptr inbounds nuw i8, ptr %5, i64 136
  store ptr %1, ptr %7, align 8, !tbaa !189
  br label %8

8:                                                ; preds = %6, %3, %2
  ret void
}